target datalayout = "e-m:e-p270:32:32-p271:32:32-p272:64:64-i64:64-i128:128-f80:128-n8:16:32:64-S128"
target triple = "x86_64-pc-linux-gnu"

%struct.bz_stream = type { ptr, i32, i32, i32, ptr, i32, i32, i32, ptr, ptr, ptr, ptr }
%struct.bzFile = type { ptr, [5000 x i8], i32, i8, %struct.bz_stream, i32, i8 }

; Function Attrs: nounwind uwtable
define ptr @BZ2_bzWriteOpen(ptr noundef %0, ptr noundef %1, i32 noundef %2, i32 noundef %3, i32 noundef %4) #0 {
  %6 = alloca ptr, align 8
  %7 = alloca ptr, align 8
  %8 = alloca ptr, align 8
  %9 = alloca i32, align 4
  %10 = alloca i32, align 4
  %11 = alloca i32, align 4
  %12 = alloca i32, align 4
  %13 = alloca ptr, align 8
  store ptr %0, ptr %7, align 8
  store ptr %1, ptr %8, align 8
  store i32 %2, ptr %9, align 4
  store i32 %3, ptr %10, align 4
  store i32 %4, ptr %11, align 4
  store ptr null, ptr %13, align 8
  %14 = load ptr, ptr %7, align 8
  %15 = icmp ne ptr %14, null
  br i1 %15, label %16, label %18

16:                                               ; preds = %5
  %17 = load ptr, ptr %7, align 8
  store i32 0, ptr %17, align 4
  br label %18

18:                                               ; preds = %16, %5
  %19 = load ptr, ptr %13, align 8
  %20 = icmp ne ptr %19, null
  br i1 %20, label %21, label %24

21:                                               ; preds = %18
  %22 = load ptr, ptr %13, align 8
  %23 = getelementptr inbounds %struct.bzFile, ptr %22, i32 0, i32 5
  store i32 0, ptr %23, align 8
  br label %24

24:                                               ; preds = %21, %18
  %25 = load ptr, ptr %8, align 8
  %26 = icmp eq ptr %25, null
  br i1 %26, label %45, label %27

27:                                               ; preds = %24
  %28 = load i32, ptr %9, align 4
  %29 = icmp slt i32 %28, 1
  br i1 %29, label %45, label %30

30:                                               ; preds = %27
  %31 = load i32, ptr %9, align 4
  %32 = icmp sgt i32 %31, 9
  br i1 %32, label %45, label %33

33:                                               ; preds = %30
  %34 = load i32, ptr %11, align 4
  %35 = icmp slt i32 %34, 0
  br i1 %35, label %45, label %36

36:                                               ; preds = %33
  %37 = load i32, ptr %11, align 4
  %38 = icmp sgt i32 %37, 250
  br i1 %38, label %45, label %39

39:                                               ; preds = %36
  %40 = load i32, ptr %10, align 4
  %41 = icmp slt i32 %40, 0
  br i1 %41, label %45, label %42

42:                                               ; preds = %39
  %43 = load i32, ptr %10, align 4
  %44 = icmp sgt i32 %43, 4
  br i1 %44, label %45, label %57

45:                                               ; preds = %42, %39, %36, %33, %30, %27, %24
  %46 = load ptr, ptr %7, align 8
  %47 = icmp ne ptr %46, null
  br i1 %47, label %48, label %50

48:                                               ; preds = %45
  %49 = load ptr, ptr %7, align 8
  store i32 -2, ptr %49, align 4
  br label %50

50:                                               ; preds = %48, %45
  %51 = load ptr, ptr %13, align 8
  %52 = icmp ne ptr %51, null
  br i1 %52, label %53, label %56

53:                                               ; preds = %50
  %54 = load ptr, ptr %13, align 8
  %55 = getelementptr inbounds %struct.bzFile, ptr %54, i32 0, i32 5
  store i32 -2, ptr %55, align 8
  br label %56

56:                                               ; preds = %53, %50
  store ptr null, ptr %6, align 8
  br label %153

57:                                               ; preds = %42
  %58 = load ptr, ptr %8, align 8
  %59 = call i32 @ferror(ptr noundef %58) #8
  %60 = icmp ne i32 %59, 0
  br i1 %60, label %61, label %73

61:                                               ; preds = %57
  %62 = load ptr, ptr %7, align 8
  %63 = icmp ne ptr %62, null
  br i1 %63, label %64, label %66

64:                                               ; preds = %61
  %65 = load ptr, ptr %7, align 8
  store i32 -6, ptr %65, align 4
  br label %66

66:                                               ; preds = %64, %61
  %67 = load ptr, ptr %13, align 8
  %68 = icmp ne ptr %67, null
  br i1 %68, label %69, label %72

69:                                               ; preds = %66
  %70 = load ptr, ptr %13, align 8
  %71 = getelementptr inbounds %struct.bzFile, ptr %70, i32 0, i32 5
  store i32 -6, ptr %71, align 8
  br label %72

72:                                               ; preds = %69, %66
  store ptr null, ptr %6, align 8
  br label %153

73:                                               ; preds = %57
  %74 = call noalias ptr @malloc(i64 noundef 5104) #10
  store ptr %74, ptr %13, align 8
  %75 = load ptr, ptr %13, align 8
  %76 = icmp eq ptr %75, null
  br i1 %76, label %77, label %89

77:                                               ; preds = %73
  %78 = load ptr, ptr %7, align 8
  %79 = icmp ne ptr %78, null
  br i1 %79, label %80, label %82

80:                                               ; preds = %77
  %81 = load ptr, ptr %7, align 8
  store i32 -3, ptr %81, align 4
  br label %82

82:                                               ; preds = %80, %77
  %83 = load ptr, ptr %13, align 8
  %84 = icmp ne ptr %83, null
  br i1 %84, label %85, label %88

85:                                               ; preds = %82
  %86 = load ptr, ptr %13, align 8
  %87 = getelementptr inbounds %struct.bzFile, ptr %86, i32 0, i32 5
  store i32 -3, ptr %87, align 8
  br label %88

88:                                               ; preds = %85, %82
  store ptr null, ptr %6, align 8
  br label %153

89:                                               ; preds = %73
  %90 = load ptr, ptr %7, align 8
  %91 = icmp ne ptr %90, null
  br i1 %91, label %92, label %94

92:                                               ; preds = %89
  %93 = load ptr, ptr %7, align 8
  store i32 0, ptr %93, align 4
  br label %94

94:                                               ; preds = %92, %89
  %95 = load ptr, ptr %13, align 8
  %96 = icmp ne ptr %95, null
  br i1 %96, label %97, label %100

97:                                               ; preds = %94
  %98 = load ptr, ptr %13, align 8
  %99 = getelementptr inbounds %struct.bzFile, ptr %98, i32 0, i32 5
  store i32 0, ptr %99, align 8
  br label %100

100:                                              ; preds = %97, %94
  %101 = load ptr, ptr %13, align 8
  %102 = getelementptr inbounds %struct.bzFile, ptr %101, i32 0, i32 6
  store i8 0, ptr %102, align 4
  %103 = load ptr, ptr %13, align 8
  %104 = getelementptr inbounds %struct.bzFile, ptr %103, i32 0, i32 2
  store i32 0, ptr %104, align 8
  %105 = load ptr, ptr %8, align 8
  %106 = load ptr, ptr %13, align 8
  %107 = getelementptr inbounds %struct.bzFile, ptr %106, i32 0, i32 0
  store ptr %105, ptr %107, align 8
  %108 = load ptr, ptr %13, align 8
  %109 = getelementptr inbounds %struct.bzFile, ptr %108, i32 0, i32 3
  store i8 1, ptr %109, align 4
  %110 = load ptr, ptr %13, align 8
  %111 = getelementptr inbounds %struct.bzFile, ptr %110, i32 0, i32 4
  %112 = getelementptr inbounds %struct.bz_stream, ptr %111, i32 0, i32 9
  store ptr null, ptr %112, align 8
  %113 = load ptr, ptr %13, align 8
  %114 = getelementptr inbounds %struct.bzFile, ptr %113, i32 0, i32 4
  %115 = getelementptr inbounds %struct.bz_stream, ptr %114, i32 0, i32 10
  store ptr null, ptr %115, align 8
  %116 = load ptr, ptr %13, align 8
  %117 = getelementptr inbounds %struct.bzFile, ptr %116, i32 0, i32 4
  %118 = getelementptr inbounds %struct.bz_stream, ptr %117, i32 0, i32 11
  store ptr null, ptr %118, align 8
  %119 = load i32, ptr %11, align 4
  %120 = icmp eq i32 %119, 0
  br i1 %120, label %121, label %122

121:                                              ; preds = %100
  store i32 30, ptr %11, align 4
  br label %122

122:                                              ; preds = %121, %100
  %123 = load ptr, ptr %13, align 8
  %124 = getelementptr inbounds %struct.bzFile, ptr %123, i32 0, i32 4
  %125 = load i32, ptr %9, align 4
  %126 = load i32, ptr %10, align 4
  %127 = load i32, ptr %11, align 4
  %128 = call i32 @BZ2_bzCompressInit(ptr noundef %124, i32 noundef %125, i32 noundef %126, i32 noundef %127)
  store i32 %128, ptr %12, align 4
  %129 = load i32, ptr %12, align 4
  %130 = icmp ne i32 %129, 0
  br i1 %130, label %131, label %146

131:                                              ; preds = %122
  %132 = load ptr, ptr %7, align 8
  %133 = icmp ne ptr %132, null
  br i1 %133, label %134, label %137

134:                                              ; preds = %131
  %135 = load i32, ptr %12, align 4
  %136 = load ptr, ptr %7, align 8
  store i32 %135, ptr %136, align 4
  br label %137

137:                                              ; preds = %134, %131
  %138 = load ptr, ptr %13, align 8
  %139 = icmp ne ptr %138, null
  br i1 %139, label %140, label %144

140:                                              ; preds = %137
  %141 = load i32, ptr %12, align 4
  %142 = load ptr, ptr %13, align 8
  %143 = getelementptr inbounds %struct.bzFile, ptr %142, i32 0, i32 5
  store i32 %141, ptr %143, align 8
  br label %144

144:                                              ; preds = %140, %137
  %145 = load ptr, ptr %13, align 8
  call void @free(ptr noundef %145) #8
  store ptr null, ptr %6, align 8
  br label %153

146:                                              ; preds = %122
  %147 = load ptr, ptr %13, align 8
  %148 = getelementptr inbounds %struct.bzFile, ptr %147, i32 0, i32 4
  %149 = getelementptr inbounds %struct.bz_stream, ptr %148, i32 0, i32 1
  store i32 0, ptr %149, align 8
  %150 = load ptr, ptr %13, align 8
  %151 = getelementptr inbounds %struct.bzFile, ptr %150, i32 0, i32 6
  store i8 1, ptr %151, align 4
  %152 = load ptr, ptr %13, align 8
  store ptr %152, ptr %6, align 8
  br label %153

153:                                              ; preds = %146, %144, %88, %72, %56
  %154 = load ptr, ptr %6, align 8
  ret ptr %154
}