; Function Attrs: nounwind uwtable
define noundef ptr @BZ2_bzWriteOpen(ptr noundef writeonly %0, ptr noundef %1, i32 noundef %2, i32 noundef %3, i32 noundef %4) local_unnamed_addr #4 {
  %.not = icmp eq ptr %0, null
  br i1 %.not, label %7, label %6

6:                                                ; preds = %5
  store i32 0, ptr %0, align 4
  br label %7

7:                                                ; preds = %5, %6
  %8 = icmp eq ptr %1, null
  %9 = add i32 %2, -10
  %10 = icmp ult i32 %9, -9
  %or.cond3 = or i1 %8, %10
  %11 = icmp ugt i32 %4, 250
  %or.cond7 = or i1 %or.cond3, %11
  %12 = icmp ugt i32 %3, 4
  %or.cond11 = or i1 %12, %or.cond7
  br i1 %or.cond11, label %13, label %15

13:                                               ; preds = %7
  br i1 %.not, label %40, label %14

14:                                               ; preds = %13
  store i32 -2, ptr %0, align 4
  br label %40

15:                                               ; preds = %7
  %16 = tail call i32 @ferror(ptr noundef nonnull %1) #22
  %.not70 = icmp eq i32 %16, 0
  br i1 %.not70, label %19, label %17

17:                                               ; preds = %15
  br i1 %.not, label %40, label %18

18:                                               ; preds = %17
  store i32 -6, ptr %0, align 4
  br label %40

19:                                               ; preds = %15
  %20 = tail call noalias dereferenceable_or_null(5104) ptr @malloc(i64 noundef 5104) #23
  %21 = icmp eq ptr %20, null
  br i1 %21, label %22, label %24

22:                                               ; preds = %19
  br i1 %.not, label %40, label %23

23:                                               ; preds = %22
  store i32 -3, ptr %0, align 4
  br label %40

24:                                               ; preds = %19
  br i1 %.not, label %26, label %25

25:                                               ; preds = %24
  store i32 0, ptr %0, align 4
  br label %26

26:                                               ; preds = %24, %25
  %27 = getelementptr inbounds nuw i8, ptr %20, i64 5096
  store i32 0, ptr %27, align 8
  %28 = getelementptr inbounds nuw i8, ptr %20, i64 5100
  store i8 0, ptr %28, align 4
  %29 = getelementptr inbounds nuw i8, ptr %20, i64 5008
  store i32 0, ptr %29, align 8
  store ptr %1, ptr %20, align 8
  %30 = getelementptr inbounds nuw i8, ptr %20, i64 5012
  store i8 1, ptr %30, align 4
  %31 = getelementptr inbounds nuw i8, ptr %20, i64 5016
  %32 = getelementptr inbounds nuw i8, ptr %20, i64 5072
  %33 = icmp eq i32 %4, 0
  %spec.store.select = select i1 %33, i32 30, i32 %4
  tail call void @llvm.memset.p0.i64(ptr noundef nonnull align 8 dereferenceable(24) %32, i8 0, i64 24, i1 false)
  %34 = tail call i32 @BZ2_bzCompressInit(ptr noundef nonnull %31, i32 noundef %2, i32 noundef %3, i32 noundef %spec.store.select)
  %.not71 = icmp eq i32 %34, 0
  br i1 %.not71, label %38, label %35

35:                                               ; preds = %26
  br i1 %.not, label %37, label %36

36:                                               ; preds = %35
  store i32 %34, ptr %0, align 4
  br label %37

37:                                               ; preds = %35, %36
  tail call void @free(ptr noundef nonnull %20) #22
  br label %40

38:                                               ; preds = %26
  %39 = getelementptr inbounds nuw i8, ptr %20, i64 5024
  store i32 0, ptr %39, align 8
  store i8 1, ptr %28, align 4
  br label %40

40:                                               ; preds = %23, %22, %18, %17, %14, %13, %38, %37
  %.0 = phi ptr [ null, %37 ], [ %20, %38 ], [ null, %13 ], [ null, %14 ], [ null, %17 ], [ null, %18 ], [ null, %22 ], [ null, %23 ]
  ret ptr %.0
}